; Function Attrs: mustprogress uwtable
define hidden void @_ZN3p2t5Sweep23FillRightAboveEdgeEventERNS_12SweepContextEPNS_4EdgeEPNS_4NodeE(ptr noundef nonnull align 8 dereferenceable(24) %0, ptr noundef nonnull align 8 dereferenceable(200) %1, ptr noundef readonly captures(none) %2, ptr noundef readonly captures(none) %3) local_unnamed_addr #2 align 2 {
  %5 = getelementptr inbounds nuw i8, ptr %3, i64 16
  %6 = load ptr, ptr %5, align 8
  %7 = load ptr, ptr %6, align 8
  %8 = load double, ptr %7, align 8
  %9 = load ptr, ptr %2, align 8
  %10 = load double, ptr %9, align 8
  %11 = fcmp olt double %8, %10
  br i1 %11, label %.lr.ph, label %._crit_edge

.lr.ph:                                           ; preds = %4
  %12 = getelementptr inbounds nuw i8, ptr %2, i64 8
  br label %13

13:                                               ; preds = %.lr.ph, %35
  %14 = phi double [ %10, %.lr.ph ], [ %36, %35 ]
  %15 = phi ptr [ %9, %.lr.ph ], [ %37, %35 ]
  %16 = phi double [ %8, %.lr.ph ], [ %41, %35 ]
  %17 = phi ptr [ %7, %.lr.ph ], [ %40, %35 ]
  %18 = phi ptr [ %6, %.lr.ph ], [ %39, %35 ]
  %.010 = phi ptr [ %3, %.lr.ph ], [ %.1, %35 ]
  %19 = load ptr, ptr %12, align 8
  %20 = load double, ptr %19, align 8
  %21 = fsub double %20, %14
  %22 = getelementptr inbounds nuw i8, ptr %17, i64 8
  %23 = load double, ptr %22, align 8
  %24 = getelementptr inbounds nuw i8, ptr %15, i64 8
  %25 = load double, ptr %24, align 8
  %26 = fsub double %23, %25
  %27 = fmul double %21, %26
  %28 = getelementptr inbounds nuw i8, ptr %19, i64 8
  %29 = load double, ptr %28, align 8
  %30 = fsub double %29, %25
  %31 = fsub double %16, %14
  %32 = fmul double %31, %30
  %33 = fcmp ogt double %27, %32
  br i1 %33, label %34, label %35

34:                                               ; preds = %13
  tail call void @_ZN3p2t5Sweep23FillRightBelowEdgeEventERNS_12SweepContextEPNS_4EdgeERNS_4NodeE(ptr noundef nonnull align 8 dereferenceable(24) %0, ptr noundef nonnull align 8 dereferenceable(200) %1, ptr noundef nonnull %2, ptr noundef nonnull align 8 dereferenceable(40) %.010)
  %.pre = load ptr, ptr %2, align 8
  %.pre11 = load double, ptr %.pre, align 8
  br label %35

35:                                               ; preds = %13, %34
  %36 = phi double [ %.pre11, %34 ], [ %14, %13 ]
  %37 = phi ptr [ %.pre, %34 ], [ %15, %13 ]
  %.1 = phi ptr [ %.010, %34 ], [ %18, %13 ]
  %38 = getelementptr inbounds nuw i8, ptr %.1, i64 16
  %39 = load ptr, ptr %38, align 8
  %40 = load ptr, ptr %39, align 8
  %41 = load double, ptr %40, align 8
  %42 = fcmp olt double %41, %36
  br i1 %42, label %13, label %._crit_edge, !llvm.loop !8

._crit_edge:                                      ; preds = %35, %4
  ret void
}